target datalayout = "e-m:e-p270:32:32-p271:32:32-p272:64:64-i64:64-i128:128-f80:128-n8:16:32:64-S128"
target triple = "x86_64-unknown-linux-gnu"

%"struct.std::_Vector_base" = type { %"struct.std::_Vector_base<std::unique_ptr<node::DataQueue::Entry>, std::allocator<std::unique_ptr<node::DataQueue::Entry>>>::_Vector_impl" }
%"struct.std::_Vector_base<std::unique_ptr<node::DataQueue::Entry>, std::allocator<std::unique_ptr<node::DataQueue::Entry>>>::_Vector_impl" = type { %"struct.std::_Vector_base<std::unique_ptr<node::DataQueue::Entry>, std::allocator<std::unique_ptr<node::DataQueue::Entry>>>::_Vector_impl_data" }
%"struct.std::_Vector_base<std::unique_ptr<node::DataQueue::Entry>, std::allocator<std::unique_ptr<node::DataQueue::Entry>>>::_Vector_impl_data" = type { ptr, ptr, ptr }
%"class.std::optional" = type { %"struct.std::_Optional_base" }
%"struct.std::_Optional_base" = type { %"struct.std::_Optional_payload" }
%"struct.std::_Optional_payload" = type { %"struct.std::_Optional_payload_base.base", [7 x i8] }
%"struct.std::_Optional_payload_base.base" = type <{ %"union.std::_Optional_payload_base<unsigned long>::_Storage", i8 }>
%"union.std::_Optional_payload_base<unsigned long>::_Storage" = type { i64 }
%"class.node::MemoryRetainer" = type { ptr }
%"struct.std::__detail::_Hash_node_base" = type { ptr }
%"struct.std::__detail::_Prime_rehash_policy" = type { float, i64 }
%"class.std::__weak_count" = type { ptr }
%"class.node::(anonymous namespace)::DataQueueImpl" = type { %"class.node::DataQueue", %"class.std::enable_shared_from_this.432", %"class.std::vector", i8, [7 x i8], %"class.std::optional", %"class.std::optional", i8, %"class.std::unordered_set.435" }
%"class.node::DataQueue" = type { %"class.node::MemoryRetainer" }
%"class.std::enable_shared_from_this.432" = type { %"class.std::weak_ptr.433" }
%"class.std::weak_ptr.433" = type { %"class.std::__weak_ptr.434" }
%"class.std::__weak_ptr.434" = type { ptr, %"class.std::__weak_count" }
%"class.std::vector" = type { %"struct.std::_Vector_base" }
%"class.std::unordered_set.435" = type { %"class.std::_Hashtable.436" }
%"class.std::_Hashtable.436" = type { ptr, i64, %"struct.std::__detail::_Hash_node_base", i64, %"struct.std::__detail::_Prime_rehash_policy", ptr }

; Function Attrs: mustprogress nounwind uwtable
define linkonce_odr dso_local noundef i64 @_ZNSt10_HashtableIPN4node9DataQueue20BackpressureListenerES3_SaIS3_ENSt8__detail9_IdentityESt8equal_toIS3_ESt4hashIS3_ENS5_18_Mod_range_hashingENS5_20_Default_ranged_hashENS5_20_Prime_rehash_policyENS5_17_Hashtable_traitsILb0ELb1ELb1EEEE5eraseERKS3_(ptr noundef nonnull align 8 dereferenceable(56) %this, ptr noundef nonnull align 8 dereferenceable(8) %__k) #4 comdat align 2 {
entry:
  %this.addr = alloca ptr, align 8
  %__k.addr = alloca ptr, align 8
  store ptr %this, ptr %this.addr, align 8
  store ptr %__k, ptr %__k.addr, align 8
  %this1 = load ptr, ptr %this.addr, align 8
  %0 = load ptr, ptr %__k.addr, align 8
  %call = call noundef i64 @_ZNSt10_HashtableIPN4node9DataQueue20BackpressureListenerES3_SaIS3_ENSt8__detail9_IdentityESt8equal_toIS3_ESt4hashIS3_ENS5_18_Mod_range_hashingENS5_20_Default_ranged_hashENS5_20_Prime_rehash_policyENS5_17_Hashtable_traitsILb0ELb1ELb1EEEE8_M_eraseESt17integral_constantIbLb1EERKS3_(ptr noundef nonnull align 8 dereferenceable(56) %this1, ptr noundef nonnull align 8 dereferenceable(8) %0)
  ret i64 %call
}

; Function Attrs: mustprogress nounwind uwtable
define linkonce_odr dso_local noundef i64 @_ZNSt13unordered_setIPN4node9DataQueue20BackpressureListenerESt4hashIS3_ESt8equal_toIS3_ESaIS3_EE5eraseERKS3_(ptr noundef nonnull align 8 dereferenceable(56) %this, ptr noundef nonnull align 8 dereferenceable(8) %__x) #4 comdat align 2 {
entry:
  %this.addr = alloca ptr, align 8
  %__x.addr = alloca ptr, align 8
  store ptr %this, ptr %this.addr, align 8
  store ptr %__x, ptr %__x.addr, align 8
  %this1 = load ptr, ptr %this.addr, align 8
  %_M_h = getelementptr inbounds %"class.std::unordered_set.435", ptr %this1, i32 0, i32 0
  %0 = load ptr, ptr %__x.addr, align 8
  %call = call noundef i64 @_ZNSt10_HashtableIPN4node9DataQueue20BackpressureListenerES3_SaIS3_ENSt8__detail9_IdentityESt8equal_toIS3_ESt4hashIS3_ENS5_18_Mod_range_hashingENS5_20_Default_ranged_hashENS5_20_Prime_rehash_policyENS5_17_Hashtable_traitsILb0ELb1ELb1EEEE5eraseERKS3_(ptr noundef nonnull align 8 dereferenceable(56) %_M_h, ptr noundef nonnull align 8 dereferenceable(8) %0)
  ret i64 %call
}

; Function Attrs: mustprogress nounwind uwtable
define internal void @_ZN4node12_GLOBAL__N_113DataQueueImpl26removeBackpressureListenerEPNS_9DataQueue20BackpressureListenerE(ptr noundef nonnull align 8 dereferenceable(152) %this, ptr noundef %listener) unnamed_addr #4 align 2 {
entry:
  %this.addr = alloca ptr, align 8
  %listener.addr = alloca ptr, align 8
  store ptr %this, ptr %this.addr, align 8
  store ptr %listener, ptr %listener.addr, align 8
  %this1 = load ptr, ptr %this.addr, align 8
  %idempotent_ = getelementptr inbounds %"class.node::(anonymous namespace)::DataQueueImpl", ptr %this1, i32 0, i32 3
  %0 = load i8, ptr %idempotent_, align 8
  %tobool = trunc i8 %0 to i1
  br i1 %tobool, label %if.then, label %if.end

if.then:                                          ; preds = %entry
  br label %return

if.end:                                           ; preds = %entry
  %backpressure_listeners_ = getelementptr inbounds %"class.node::(anonymous namespace)::DataQueueImpl", ptr %this1, i32 0, i32 8
  %call = call noundef i64 @_ZNSt13unordered_setIPN4node9DataQueue20BackpressureListenerESt4hashIS3_ESt8equal_toIS3_ESaIS3_EE5eraseERKS3_(ptr noundef nonnull align 8 dereferenceable(56) %backpressure_listeners_, ptr noundef nonnull align 8 dereferenceable(8) %listener.addr)
  br label %return

return:                                           ; preds = %if.end, %if.then
  ret void
}