; Function Attrs: mustprogress nounwind uwtable
define internal void @_ZN4node12_GLOBAL__N_113DataQueueImpl26removeBackpressureListenerEPNS_9DataQueue20BackpressureListenerE(ptr noundef nonnull align 8 dereferenceable(152) %this, ptr noundef %listener) unnamed_addr #3 align 2 {
entry:
  %listener.addr = alloca ptr, align 8
  store ptr %listener, ptr %listener.addr, align 8
  %idempotent_ = getelementptr inbounds i8, ptr %this, i64 48
  %0 = load i8, ptr %idempotent_, align 8
  %1 = and i8 %0, 1
  %tobool.not = icmp eq i8 %1, 0
  br i1 %tobool.not, label %if.end, label %return

if.end:                                           ; preds = %entry
  %backpressure_listeners_ = getelementptr inbounds i8, ptr %this, i64 96
  %call.i.i = call noundef i64 @_ZNSt10_HashtableIPN4node9DataQueue20BackpressureListenerES3_SaIS3_ENSt8__detail9_IdentityESt8equal_toIS3_ESt4hashIS3_ENS5_18_Mod_range_hashingENS5_20_Default_ranged_hashENS5_20_Prime_rehash_policyENS5_17_Hashtable_traitsILb0ELb1ELb1EEEE8_M_eraseESt17integral_constantIbLb1EERKS3_(ptr noundef nonnull align 8 dereferenceable(56) %backpressure_listeners_, ptr noundef nonnull align 8 dereferenceable(8) %listener.addr)
  br label %return

return:                                           ; preds = %entry, %if.end
  ret void
}